	.file	"strung.cpp"
	.text
.Ltext0:
	.cfi_sections	.debug_frame
.lcomm _ZStL8__ioinit,1,1
	.def	__main;	.scl	2;	.type	32;	.endef
	.section .rdata,"dr"
.LC0:
	.ascii "They carried a net \0"
.LC1:
	.ascii "and their hearts were set\0"
	.align 8
.LC2:
	.ascii "In a bowl oto sea went wise men three\0"
.LC3:
	.ascii "On a brilliant night in June\0"
.LC4:
	.ascii "On fishing up the moon.\0"
	.def	__gxx_personality_sj0;	.scl	2;	.type	32;	.endef
	.def	_Unwind_SjLj_Register;	.scl	2;	.type	32;	.endef
	.def	_Unwind_SjLj_Unregister;	.scl	2;	.type	32;	.endef
	.text
	.globl	main
	.def	main;	.scl	2;	.type	32;	.endef
	.seh_proc	main
main:
.LFB981:
	.file 1 "../strung.cpp"
	.loc 1 45 0
	.cfi_startproc
	.cfi_personality 0x9b,.LDFCM0
	.cfi_lsda 0x1b,.LLSDA981
	pushq	%rbp
	.seh_pushreg	%rbp
.LCFI0:
	.cfi_def_cfa_offset 16
	.cfi_offset 6, -16
	pushq	%r15
	.seh_pushreg	%r15
.LCFI1:
	.cfi_def_cfa_offset 24
	.cfi_offset 15, -24
	pushq	%r14
	.seh_pushreg	%r14
.LCFI2:
	.cfi_def_cfa_offset 32
	.cfi_offset 14, -32
	pushq	%r13
	.seh_pushreg	%r13
.LCFI3:
	.cfi_def_cfa_offset 40
	.cfi_offset 13, -40
	pushq	%r12
	.seh_pushreg	%r12
.LCFI4:
	.cfi_def_cfa_offset 48
	.cfi_offset 12, -48
	pushq	%rdi
	.seh_pushreg	%rdi
.LCFI5:
	.cfi_def_cfa_offset 56
	.cfi_offset 5, -56
	pushq	%rsi
	.seh_pushreg	%rsi
.LCFI6:
	.cfi_def_cfa_offset 64
	.cfi_offset 4, -64
	pushq	%rbx
	.seh_pushreg	%rbx
.LCFI7:
	.cfi_def_cfa_offset 72
	.cfi_offset 3, -72
	subq	$344, %rsp
	.seh_stackalloc	344
.LCFI8:
	.cfi_def_cfa_offset 416
	leaq	128(%rsp), %rbp
.LCFI9:
	.cfi_def_cfa 6, 288
	movaps	%xmm6, 48(%rbp)
	.seh_savexmm	%xmm6, 176
	movaps	%xmm7, 64(%rbp)
	.seh_savexmm	%xmm7, 192
	movaps	%xmm8, 80(%rbp)
	.seh_savexmm	%xmm8, 208
	movaps	%xmm9, 96(%rbp)
	.seh_savexmm	%xmm9, 224
	movaps	%xmm10, 112(%rbp)
	.seh_savexmm	%xmm10, 240
	movaps	%xmm11, 128(%rbp)
	.seh_savexmm	%xmm11, 256
	movaps	%xmm12, 144(%rbp)
	.seh_savexmm	%xmm12, 272
	movaps	%xmm13, 160(%rbp)
	.seh_savexmm	%xmm13, 288
	movaps	%xmm14, 176(%rbp)
	.seh_savexmm	%xmm14, 304
	movaps	%xmm15, 192(%rbp)
	.seh_savexmm	%xmm15, 320
	.cfi_offset 23, -240
	.cfi_offset 24, -224
	.cfi_offset 25, -208
	.cfi_offset 26, -192
	.cfi_offset 27, -176
	.cfi_offset 28, -160
	.cfi_offset 29, -144
	.cfi_offset 30, -128
	.cfi_offset 31, -112
	.cfi_offset 32, -96
	.seh_setframe	%rbp, 128
	.seh_endprologue
	leaq	__gxx_personality_sj0(%rip), %rax
	movq	%rax, -32(%rbp)
	leaq	.LLSDA981(%rip), %rax
	movq	%rax, -24(%rbp)
	leaq	-16(%rbp), %rax
	leaq	48(%rbp), %rdx
	movq	%rdx, (%rax)
	leaq	.L6(%rip), %rdx
	movq	%rdx, 8(%rax)
	movq	%rsp, 16(%rax)
	leaq	-80(%rbp), %rax
	movq	%rax, %rcx
	call	_Unwind_SjLj_Register
	.loc 1 45 0
	call	__main
.LBB2:
	.loc 1 47 0
	leaq	47(%rbp), %rax
	movq	%rax, %rcx
	call	_ZNSaIcEC1Ev
	leaq	47(%rbp), %rdx
	leaq	32(%rbp), %rax
	movl	$1, -72(%rbp)
	movq	%rdx, %r8
	leaq	.LC0(%rip), %rdx
	movq	%rax, %rcx
	call	_ZNSsC1EPKcRKSaIcE
	.loc 1 47 0 is_stmt 0 discriminator 1
	leaq	47(%rbp), %rax
	movq	%rax, %rcx
	call	_ZNSaIcED1Ev
	.loc 1 48 0 is_stmt 1 discriminator 1
	leaq	32(%rbp), %rax
	movl	$3, -72(%rbp)
	leaq	.LC1(%rip), %rdx
	movq	%rax, %rcx
	call	_ZNSspLEPKc
	.loc 1 51 0
	leaq	.LC2(%rip), %rdx
	leaq	_ZSt4cout(%rip), %rcx
	call	_ZStlsISt11char_traitsIcEERSt13basic_ostreamIcT_ES5_PKc
	leaq	_ZSt4endlIcSt11char_traitsIcEERSt13basic_ostreamIT_T0_ES6_(%rip), %rdx
	movq	%rax, %rcx
	call	_ZNSolsEPFRSoS_E
	.loc 1 52 0
	leaq	.LC3(%rip), %rdx
	leaq	_ZSt4cout(%rip), %rcx
	call	_ZStlsISt11char_traitsIcEERSt13basic_ostreamIcT_ES5_PKc
	leaq	_ZSt4endlIcSt11char_traitsIcEERSt13basic_ostreamIT_T0_ES6_(%rip), %rdx
	movq	%rax, %rcx
	call	_ZNSolsEPFRSoS_E
	.loc 1 53 0
	leaq	32(%rbp), %rax
	movq	%rax, %rdx
	leaq	_ZSt4cout(%rip), %rcx
	call	_ZStlsIcSt11char_traitsIcESaIcEERSt13basic_ostreamIT_T0_ES7_RKSbIS4_S5_T1_E
	leaq	_ZSt4endlIcSt11char_traitsIcEERSt13basic_ostreamIT_T0_ES6_(%rip), %rdx
	movq	%rax, %rcx
	call	_ZNSolsEPFRSoS_E
	.loc 1 54 0
	leaq	.LC4(%rip), %rdx
	leaq	_ZSt4cout(%rip), %rcx
	call	_ZStlsISt11char_traitsIcEERSt13basic_ostreamIcT_ES5_PKc
	leaq	_ZSt4endlIcSt11char_traitsIcEERSt13basic_ostreamIT_T0_ES6_(%rip), %rdx
	movq	%rax, %rcx
	call	_ZNSolsEPFRSoS_E
	.loc 1 56 0
	movl	$0, 28(%rbp)
	leaq	32(%rbp), %rax
	movl	$2, -72(%rbp)
	movq	%rax, %rcx
	call	_ZNSsD1Ev
	movl	28(%rbp), %eax
	movl	%eax, 24(%rbp)
	jmp	.L10
.L6:
	leaq	-48(%rbp), %rbp
	movq	-64(%rbp), %rdx
	movl	-72(%rbp), %eax
	cmpl	$1, %eax
	je	.L8
	cmpl	$2, %eax
	je	.L9
	testl	%eax, %eax
	je	.L7
		.word	0x0b0f
.L7:
	movq	%rdx, -88(%rbp)
	.loc 1 47 0
	leaq	47(%rbp), %rax
	movq	%rax, %rcx
	call	_ZNSaIcED1Ev
	movq	-88(%rbp), %rax
	jmp	.L4
.L9:
	movq	%rdx, -96(%rbp)
	.loc 1 56 0
	leaq	32(%rbp), %rax
	movl	$0, -72(%rbp)
	movq	%rax, %rcx
	call	_ZNSsD1Ev
	movq	-96(%rbp), %rax
	jmp	.L4
.L8:
	movq	%rdx, %rax
.L4:
	movl	$-1, -72(%rbp)
	movq	%rax, %rcx
	call	_Unwind_SjLj_Resume
.L10:
	leaq	-80(%rbp), %rax
	movq	%rax, %rcx
	call	_Unwind_SjLj_Unregister
.LBE2:
	.loc 1 57 0
	movl	24(%rbp), %eax
	movaps	48(%rbp), %xmm6
	movaps	64(%rbp), %xmm7
	movaps	80(%rbp), %xmm8
	movaps	96(%rbp), %xmm9
	movaps	112(%rbp), %xmm10
	movaps	128(%rbp), %xmm11
	movaps	144(%rbp), %xmm12
	movaps	160(%rbp), %xmm13
	movaps	176(%rbp), %xmm14
	movaps	192(%rbp), %xmm15
	addq	$344, %rsp
	.cfi_restore 32
	.cfi_restore 31
	.cfi_restore 30
	.cfi_restore 29
	.cfi_restore 28
	.cfi_restore 27
	.cfi_restore 26
	.cfi_restore 25
	.cfi_restore 24
	.cfi_restore 23
	popq	%rbx
	.cfi_restore 3
	popq	%rsi
	.cfi_restore 4
	popq	%rdi
	.cfi_restore 5
	popq	%r12
	.cfi_restore 12
	popq	%r13
	.cfi_restore 13
	popq	%r14
	.cfi_restore 14
	popq	%r15
	.cfi_restore 15
	popq	%rbp
.LCFI10:
	.cfi_restore 6
	.cfi_def_cfa 7, -280
	ret
	.cfi_endproc
.LFE981:
	.section	.gcc_except_table,"w"
.LLSDA981:
	.byte	0xff
	.byte	0xff
	.byte	0x1
	.uleb128 .LLSDACSE981-.LLSDACSB981
.LLSDACSB981:
	.uleb128 0
	.uleb128 0
	.uleb128 0x1
	.uleb128 0
	.uleb128 0x2
	.uleb128 0
.LLSDACSE981:
	.text
	.seh_endproc
	.def	__tcf_0;	.scl	3;	.type	32;	.endef
	.seh_proc	__tcf_0
__tcf_0:
.LFB1024:
	.file 2 "d:/program files (x86)/dev-cpp/mingw64/bin/../lib/gcc/x86_64-w64-mingw32/4.7.1/include/c++/iostream"
	.loc 2 75 0
	.cfi_startproc
	pushq	%rbp
	.seh_pushreg	%rbp
.LCFI11:
	.cfi_def_cfa_offset 16
	.cfi_offset 6, -16
	movq	%rsp, %rbp
.LCFI12:
	.cfi_def_cfa_register 6
	subq	$32, %rsp
	.seh_stackalloc	32
	.seh_setframe	%rbp, 32
	.seh_endprologue
	.loc 2 75 0
	leaq	_ZStL8__ioinit(%rip), %rcx
	call	_ZNSt8ios_base4InitD1Ev
	nop
	addq	$32, %rsp
	popq	%rbp
.LCFI13:
	.cfi_restore 6
	.cfi_def_cfa 7, 8
	ret
	.cfi_endproc
.LFE1024:
	.seh_endproc
	.def	_Z41__static_initialization_and_destruction_0ii;	.scl	3;	.type	32;	.endef
	.seh_proc	_Z41__static_initialization_and_destruction_0ii
_Z41__static_initialization_and_destruction_0ii:
.LFB1023:
	.loc 1 57 0
	.cfi_startproc
	pushq	%rbp
	.seh_pushreg	%rbp
.LCFI14:
	.cfi_def_cfa_offset 16
	.cfi_offset 6, -16
	movq	%rsp, %rbp
.LCFI15:
	.cfi_def_cfa_register 6
	subq	$32, %rsp
	.seh_stackalloc	32
	.seh_setframe	%rbp, 32
	.seh_endprologue
	movl	%ecx, 16(%rbp)
	movl	%edx, 24(%rbp)
	.loc 1 57 0
	cmpl	$1, 16(%rbp)
	jne	.L12
	.loc 1 57 0 is_stmt 0 discriminator 1
	cmpl	$65535, 24(%rbp)
	jne	.L12
	.loc 2 75 0 is_stmt 1
	leaq	_ZStL8__ioinit(%rip), %rcx
	call	_ZNSt8ios_base4InitC1Ev
	leaq	__tcf_0(%rip), %rcx
	call	atexit
	nop
.L12:
	.loc 1 57 0
	addq	$32, %rsp
	popq	%rbp
.LCFI16:
	.cfi_restore 6
	.cfi_def_cfa 7, 8
	ret
	.cfi_endproc
.LFE1023:
	.seh_endproc
	.def	_GLOBAL__sub_I_main;	.scl	3;	.type	32;	.endef
	.seh_proc	_GLOBAL__sub_I_main
_GLOBAL__sub_I_main:
.LFB1025:
	.loc 1 57 0
	.cfi_startproc
	pushq	%rbp
	.seh_pushreg	%rbp
.LCFI17:
	.cfi_def_cfa_offset 16
	.cfi_offset 6, -16
	movq	%rsp, %rbp
.LCFI18:
	.cfi_def_cfa_register 6
	subq	$32, %rsp
	.seh_stackalloc	32
	.seh_setframe	%rbp, 32
	.seh_endprologue
	.loc 1 57 0
	movl	$65535, %edx
	movl	$1, %ecx
	call	_Z41__static_initialization_and_destruction_0ii
	nop
	addq	$32, %rsp
	popq	%rbp
.LCFI19:
	.cfi_restore 6
	.cfi_def_cfa 7, 8
	ret
	.cfi_endproc
.LFE1025:
	.seh_endproc
	.section	.ctors,"w"
	.align 8
	.quad	_GLOBAL__sub_I_main
	.text
.Letext0:
	.file 3 "d:/program files (x86)/dev-cpp/mingw64/bin/../lib/gcc/x86_64-w64-mingw32/4.7.1/include/c++/cwchar"
	.file 4 "d:/program files (x86)/dev-cpp/mingw64/bin/../lib/gcc/x86_64-w64-mingw32/4.7.1/include/c++/x86_64-w64-mingw32/bits/c++config.h"
	.file 5 "d:/program files (x86)/dev-cpp/mingw64/bin/../lib/gcc/x86_64-w64-mingw32/4.7.1/include/c++/clocale"
	.file 6 "d:/program files (x86)/dev-cpp/mingw64/bin/../lib/gcc/x86_64-w64-mingw32/4.7.1/include/c++/bits/stringfwd.h"
	.file 7 "d:/program files (x86)/dev-cpp/mingw64/bin/../lib/gcc/x86_64-w64-mingw32/4.7.1/include/c++/bits/ios_base.h"
	.file 8 "d:/program files (x86)/dev-cpp/mingw64/bin/../lib/gcc/x86_64-w64-mingw32/4.7.1/include/c++/cwctype"
	.file 9 "d:/program files (x86)/dev-cpp/mingw64/bin/../lib/gcc/x86_64-w64-mingw32/4.7.1/include/c++/iosfwd"
	.file 10 "<built-in>"
	.file 11 "d:/program files (x86)/dev-cpp/mingw64/bin/../lib/gcc/x86_64-w64-mingw32/4.7.1/include/c++/bits/cpp_type_traits.h"
	.file 12 "d:/program files (x86)/dev-cpp/mingw64/bin/../lib/gcc/x86_64-w64-mingw32/4.7.1/include/c++/ext/new_allocator.h"
	.file 13 "d:/program files (x86)/dev-cpp/mingw64/bin/../lib/gcc/x86_64-w64-mingw32/4.7.1/include/c++/debug/debug.h"
	.file 14 "d:/program files (x86)/dev-cpp/mingw64/bin/../lib/gcc/x86_64-w64-mingw32/4.7.1/../../../../x86_64-w64-mingw32/include/_mingw.h"
	.file 15 "d:/program files (x86)/dev-cpp/mingw64/bin/../lib/gcc/x86_64-w64-mingw32/4.7.1/include/c++/bits/basic_string.h"
	.file 16 "d:/program files (x86)/dev-cpp/mingw64/bin/../lib/gcc/x86_64-w64-mingw32/4.7.1/../../../../x86_64-w64-mingw32/include/locale.h"
	.file 17 "d:/program files (x86)/dev-cpp/mingw64/bin/../lib/gcc/x86_64-w64-mingw32/4.7.1/../../../../x86_64-w64-mingw32/include/wchar.h"
	.file 18 "d:/program files (x86)/dev-cpp/mingw64/bin/../lib/gcc/x86_64-w64-mingw32/4.7.1/include/c++/bits/char_traits.h"
	.file 19 "d:/program files (x86)/dev-cpp/mingw64/bin/../lib/gcc/x86_64-w64-mingw32/4.7.1/include/c++/bits/allocator.h"
	.file 20 "d:/program files (x86)/dev-cpp/mingw64/bin/../lib/gcc/x86_64-w64-mingw32/4.7.1/include/c++/x86_64-w64-mingw32/bits/atomic_word.h"
	.file 21 "d:/program files (x86)/dev-cpp/mingw64/bin/../lib/gcc/x86_64-w64-mingw32/4.7.1/include/c++/ext/numeric_traits.h"
	.file 22 "d:/program files (x86)/dev-cpp/mingw64/bin/../lib/gcc/x86_64-w64-mingw32/4.7.1/include/c++/bits/basic_string.tcc"
	.file 23 "d:/program files (x86)/dev-cpp/mingw64/bin/../lib/gcc/x86_64-w64-mingw32/4.7.1/../../../../x86_64-w64-mingw32/include/wctype.h"
	.file 24 "d:/program files (x86)/dev-cpp/mingw64/bin/../lib/gcc/x86_64-w64-mingw32/4.7.1/include/c++/x86_64-w64-mingw32/bits/gthr-default.h"
	.data
	.align 8
.LDFCM0:
	.quad	__gxx_personality_sj0
	.def	_ZSt4endlIcSt11char_traitsIcEERSt13basic_ostreamIT_T0_ES6_;	.scl	2;	.type	32;	.endef
	.def	_Unwind_SjLj_Resume;	.scl	2;	.type	32;	.endef
	.def	_ZNSaIcEC1Ev;	.scl	2;	.type	32;	.endef
	.def	_ZNSsC1EPKcRKSaIcE;	.scl	2;	.type	32;	.endef
	.def	_ZNSaIcED1Ev;	.scl	2;	.type	32;	.endef
	.def	_ZNSspLEPKc;	.scl	2;	.type	32;	.endef
	.def	_ZStlsISt11char_traitsIcEERSt13basic_ostreamIcT_ES5_PKc;	.scl	2;	.type	32;	.endef
	.def	_ZNSolsEPFRSoS_E;	.scl	2;	.type	32;	.endef
	.def	_ZStlsIcSt11char_traitsIcESaIcEERSt13basic_ostreamIT_T0_ES7_RKSbIS4_S5_T1_E;	.scl	2;	.type	32;	.endef
	.def	_ZNSsD1Ev;	.scl	2;	.type	32;	.endef
	.def	_ZNSt8ios_base4InitD1Ev;	.scl	2;	.type	32;	.endef
	.def	_ZNSt8ios_base4InitC1Ev;	.scl	2;	.type	32;	.endef
	.def	atexit;	.scl	2;	.type	32;	.endef
